; ModuleID = '44/872.c'
source_filename = "44/872.c"
target datalayout = "e-m:e-p270:32:32-p271:32:32-p272:64:64-i64:64-f80:128-n8:16:32:64-S128"
target triple = "x86_64-pc-linux-gnu"

@.str = private unnamed_addr constant [4 x i8] c"%d\0A\00", align 1
@.str.1 = private unnamed_addr constant [3 x i8] c"%s\00", align 1

; Function Attrs: noinline nounwind uwtable
define dso_local void @inv(i8* %0) #0 {
  %2 = alloca i8*, align 8
  %3 = alloca i32, align 4
  %4 = alloca i32, align 4
  %5 = alloca i32, align 4
  %6 = alloca i8, align 1
  store i8* %0, i8** %2, align 8
  %7 = load i8*, i8** %2, align 8
  %8 = call i64 @strlen(i8* %7) #3
  %9 = trunc i64 %8 to i32
  store i32 %9, i32* %3, align 4
  store i32 0, i32* %5, align 4
  br label %10

10:                                               ; preds = %56, %1
  %11 = load i32, i32* %5, align 4
  %12 = load i32, i32* %3, align 4
  %13 = sdiv i32 %12, 2
  %14 = icmp slt i32 %11, %13
  br i1 %14, label %15, label %59

15:                                               ; preds = %10
  %16 = load i8*, i8** %2, align 8
  %17 = load i32, i32* %5, align 4
  %18 = sext i32 %17 to i64
  %19 = getelementptr inbounds i8, i8* %16, i64 %18
  %20 = load i8, i8* %19, align 1
  %21 = sext i8 %20 to i32
  %22 = icmp eq i32 %21, 45
  br i1 %22, label %23, label %26

23:                                               ; preds = %15
  %24 = load i32, i32* %3, align 4
  %25 = add nsw i32 %24, 1
  store i32 %25, i32* %3, align 4
  br label %56

26:                                               ; preds = %15
  %27 = load i8*, i8** %2, align 8
  %28 = load i32, i32* %5, align 4
  %29 = sext i32 %28 to i64
  %30 = getelementptr inbounds i8, i8* %27, i64 %29
  %31 = load i8, i8* %30, align 1
  store i8 %31, i8* %6, align 1
  %32 = load i8*, i8** %2, align 8
  %33 = load i32, i32* %3, align 4
  %34 = sext i32 %33 to i64
  %35 = getelementptr inbounds i8, i8* %32, i64 %34
  %36 = getelementptr inbounds i8, i8* %35, i64 -1
  %37 = load i32, i32* %5, align 4
  %38 = sext i32 %37 to i64
  %39 = sub i64 0, %38
  %40 = getelementptr inbounds i8, i8* %36, i64 %39
  %41 = load i8, i8* %40, align 1
  %42 = load i8*, i8** %2, align 8
  %43 = load i32, i32* %5, align 4
  %44 = sext i32 %43 to i64
  %45 = getelementptr inbounds i8, i8* %42, i64 %44
  store i8 %41, i8* %45, align 1
  %46 = load i8, i8* %6, align 1
  %47 = load i8*, i8** %2, align 8
  %48 = load i32, i32* %3, align 4
  %49 = sext i32 %48 to i64
  %50 = getelementptr inbounds i8, i8* %47, i64 %49
  %51 = getelementptr inbounds i8, i8* %50, i64 -1
  %52 = load i32, i32* %5, align 4
  %53 = sext i32 %52 to i64
  %54 = sub i64 0, %53
  %55 = getelementptr inbounds i8, i8* %51, i64 %54
  store i8 %46, i8* %55, align 1
  br label %56

56:                                               ; preds = %26, %23
  %57 = load i32, i32* %5, align 4
  %58 = add nsw i32 %57, 1
  store i32 %58, i32* %5, align 4
  br label %10

59:                                               ; preds = %10
  %60 = load i8*, i8** %2, align 8
  %61 = call i32 @atoi(i8* %60) #3
  store i32 %61, i32* %4, align 4
  %62 = load i32, i32* %4, align 4
  %63 = call i32 (i8*, ...) @printf(i8* getelementptr inbounds ([4 x i8], [4 x i8]* @.str, i64 0, i64 0), i32 %62)
  ret void
}

; Function Attrs: nounwind readonly
declare dso_local i64 @strlen(i8*) #1

; Function Attrs: nounwind readonly
declare dso_local i32 @atoi(i8*) #1

declare dso_local i32 @printf(i8*, ...) #2

; Function Attrs: noinline nounwind uwtable
define dso_local void @main() #0 {
  %1 = alloca i32, align 4
  %2 = alloca [6 x [9 x i8]], align 16
  store i32 0, i32* %1, align 4
  br label %3

3:                                                ; preds = %12, %0
  %4 = load i32, i32* %1, align 4
  %5 = icmp slt i32 %4, 6
  br i1 %5, label %6, label %15

6:                                                ; preds = %3
  %7 = getelementptr inbounds [6 x [9 x i8]], [6 x [9 x i8]]* %2, i64 0, i64 0
  %8 = load i32, i32* %1, align 4
  %9 = sext i32 %8 to i64
  %10 = getelementptr inbounds [9 x i8], [9 x i8]* %7, i64 %9
  %11 = call i32 (i8*, ...) @__isoc99_scanf(i8* getelementptr inbounds ([3 x i8], [3 x i8]* @.str.1, i64 0, i64 0), [9 x i8]* %10)
  br label %12

12:                                               ; preds = %6
  %13 = load i32, i32* %1, align 4
  %14 = add nsw i32 %13, 1
  store i32 %14, i32* %1, align 4
  br label %3

15:                                               ; preds = %3
  store i32 0, i32* %1, align 4
  br label %16

16:                                               ; preds = %25, %15
  %17 = load i32, i32* %1, align 4
  %18 = icmp slt i32 %17, 6
  br i1 %18, label %19, label %28

19:                                               ; preds = %16
  %20 = getelementptr inbounds [6 x [9 x i8]], [6 x [9 x i8]]* %2, i64 0, i64 0
  %21 = load i32, i32* %1, align 4
  %22 = sext i32 %21 to i64
  %23 = getelementptr inbounds [9 x i8], [9 x i8]* %20, i64 %22
  %24 = getelementptr inbounds [9 x i8], [9 x i8]* %23, i64 0, i64 0
  call void @inv(i8* %24)
  br label %25

25:                                               ; preds = %19
  %26 = load i32, i32* %1, align 4
  %27 = add nsw i32 %26, 1
  store i32 %27, i32* %1, align 4
  br label %16

28:                                               ; preds = %16
  ret void
}

declare dso_local i32 @__isoc99_scanf(i8*, ...) #2


!llvm.module.flags = !{!0}
!llvm.ident = !{!1}

!0 = !{i32 1, !"wchar_size", i32 4}
!1 = !{!"clang version 10.0.0-4ubuntu1 "}
